; Function Attrs: mustprogress nounwind uwtable
define hidden void @_ZN10ciTypeFlowC2EP5ciEnvP8ciMethodi(ptr nocapture noundef nonnull align 8 dereferenceable(88) %0, ptr noundef %1, ptr noundef nonnull %2, i32 noundef %3) unnamed_addr #0 align 2 {
  store ptr %1, ptr %0, align 8
  %5 = getelementptr inbounds i8, ptr %0, i64 8
  store ptr %2, ptr %5, align 8
  %6 = getelementptr inbounds i8, ptr %0, i64 20
  store i8 0, ptr %6, align 4
  %7 = getelementptr inbounds i8, ptr %0, i64 16
  store i32 %3, ptr %7, align 8
  %8 = getelementptr inbounds i8, ptr %0, i64 24
  store ptr null, ptr %8, align 8
  %9 = getelementptr inbounds i8, ptr %0, i64 48
  store ptr null, ptr %9, align 8
  %10 = tail call noundef ptr @_ZN8ciMethod17get_method_blocksEv(ptr noundef nonnull align 8 dereferenceable(160) %2) #14
  %11 = getelementptr inbounds i8, ptr %10, i64 32
  %12 = load i32, ptr %11, align 8
  %13 = load ptr, ptr %0, align 8
  %14 = load ptr, ptr %13, align 8
  %15 = sext i32 %12 to i64
  %16 = shl nsw i64 %15, 3
  %17 = getelementptr inbounds i8, ptr %14, i64 40
  %18 = load ptr, ptr %17, align 8
  %19 = getelementptr inbounds i8, ptr %14, i64 32
  %20 = load ptr, ptr %19, align 8
  %21 = ptrtoint ptr %18 to i64
  %22 = ptrtoint ptr %20 to i64
  %23 = sub i64 %21, %22
  %.not.i.i = icmp ult i64 %23, %16
  br i1 %.not.i.i, label %26, label %24

24:                                               ; preds = %4
  %25 = getelementptr inbounds i8, ptr %20, i64 %16
  store ptr %25, ptr %19, align 8
  br label %_ZN5Arena7AmallocEmN17AllocFailStrategy13AllocFailEnumE.exit

26:                                               ; preds = %4
  %27 = tail call noundef ptr @_ZN5Arena4growEmN17AllocFailStrategy13AllocFailEnumE(ptr noundef nonnull align 8 dereferenceable(48) %14, i64 noundef %16, i32 noundef 0) #14
  br label %_ZN5Arena7AmallocEmN17AllocFailStrategy13AllocFailEnumE.exit

_ZN5Arena7AmallocEmN17AllocFailStrategy13AllocFailEnumE.exit: ; preds = %24, %26
  %.0.i.i = phi ptr [ %20, %24 ], [ %27, %26 ]
  %28 = getelementptr inbounds i8, ptr %0, i64 40
  store ptr %.0.i.i, ptr %28, align 8
  %29 = icmp sgt i32 %12, 0
  br i1 %29, label %.lr.ph.preheader, label %._crit_edge

.lr.ph.preheader:                                 ; preds = %_ZN5Arena7AmallocEmN17AllocFailStrategy13AllocFailEnumE.exit
  %wide.trip.count = zext nneg i32 %12 to i64
  br label %.lr.ph

.lr.ph:                                           ; preds = %.lr.ph.preheader, %.lr.ph
  %indvars.iv = phi i64 [ 0, %.lr.ph.preheader ], [ %indvars.iv.next, %.lr.ph ]
  %30 = load ptr, ptr %28, align 8
  %31 = getelementptr inbounds ptr, ptr %30, i64 %indvars.iv
  store ptr null, ptr %31, align 8
  %indvars.iv.next = add nuw nsw i64 %indvars.iv, 1
  %exitcond.not = icmp eq i64 %indvars.iv.next, %wide.trip.count
  br i1 %exitcond.not, label %._crit_edge, label %.lr.ph, !llvm.loop !37

._crit_edge:                                      ; preds = %.lr.ph, %_ZN5Arena7AmallocEmN17AllocFailStrategy13AllocFailEnumE.exit
  %32 = getelementptr inbounds i8, ptr %0, i64 32
  store ptr null, ptr %32, align 8
  %33 = getelementptr inbounds i8, ptr %0, i64 80
  store ptr null, ptr %33, align 8
  ret void
}